(lp0
S'poi'
p1
aS'expenses'
p2
aS'deferred_income'
p3
aS'loan_advances'
p4
aS'shared_receipt_with_poi'
p5
aS'director_fees'
p6
aS'restricted_stock_deferred'
p7
aS'other'
p8
aS'long_term_incentive'
p9
aS'deferral_payments'
p10
aS'from_this_person_to_poi'
p11
aS'total_payments'
p12
aS'total_stock_value'
p13
a.